; Function Attrs: nounwind uwtable
define internal ptr @ExecMaterial(ptr noundef captures(none) %0) #0 {
  %2 = load volatile i32, ptr @InterruptPending, align 4
  %.not = icmp eq i32 %2, 0
  br i1 %.not, label %4, label %3, !prof !4

3:                                                ; preds = %1
  tail call void @ProcessInterrupts() #2
  br label %4

4:                                                ; preds = %3, %1
  %5 = getelementptr inbounds nuw i8, ptr %0, i64 16
  %6 = load ptr, ptr %5, align 8
  %7 = getelementptr inbounds nuw i8, ptr %6, i64 4
  %8 = load i32, ptr %7, align 4
  %9 = icmp eq i32 %8, 1
  %10 = getelementptr inbounds nuw i8, ptr %0, i64 232
  %11 = load ptr, ptr %10, align 8
  %12 = icmp eq ptr %11, null
  br i1 %12, label %13, label %.thread56

13:                                               ; preds = %4
  %14 = getelementptr inbounds nuw i8, ptr %0, i64 224
  %15 = load i32, ptr %14, align 8
  %.not49 = icmp eq i32 %15, 0
  br i1 %.not49, label %.thread, label %16

16:                                               ; preds = %13
  %17 = load i32, ptr @work_mem, align 4
  %18 = tail call ptr @tuplestore_begin_heap(i1 noundef zeroext true, i1 noundef zeroext false, i32 noundef %17) #2
  %19 = load i32, ptr %14, align 8
  tail call void @tuplestore_set_eflags(ptr noundef %18, i32 noundef %19) #2
  %20 = load i32, ptr %14, align 8
  %21 = and i32 %20, 16
  %.not50 = icmp eq i32 %21, 0
  br i1 %.not50, label %24, label %22

22:                                               ; preds = %16
  %23 = tail call i32 @tuplestore_alloc_read_pointer(ptr noundef %18, i32 noundef %20) #2
  br label %24

24:                                               ; preds = %16, %22
  store ptr %18, ptr %10, align 8
  %25 = icmp eq ptr %18, null
  br i1 %25, label %.thread, label %.thread56

.thread56:                                        ; preds = %4, %24
  %.04258 = phi ptr [ %18, %24 ], [ %11, %4 ]
  %26 = tail call zeroext i1 @tuplestore_ateof(ptr noundef nonnull %.04258) #2
  br label %.thread

.thread:                                          ; preds = %13, %.thread56, %24
  %27 = phi i1 [ true, %24 ], [ false, %.thread56 ], [ true, %13 ]
  %.04255 = phi ptr [ null, %24 ], [ %.04258, %.thread56 ], [ null, %13 ]
  %28 = phi i1 [ true, %24 ], [ %26, %.thread56 ], [ true, %13 ]
  %.not53 = xor i1 %28, true
  %brmerge = select i1 %9, i1 true, i1 %.not53
  br i1 %brmerge, label %37, label %29

29:                                               ; preds = %.thread
  %30 = getelementptr inbounds nuw i8, ptr %0, i64 228
  %31 = load i8, ptr %30, align 4, !range !5, !noundef !6
  %32 = trunc nuw i8 %31 to i1
  br i1 %32, label %.thread59, label %33

33:                                               ; preds = %29
  %34 = tail call zeroext i1 @tuplestore_advance(ptr noundef %.04255, i1 noundef zeroext false) #2
  br i1 %34, label %.thread59, label %76

.thread59:                                        ; preds = %33, %29
  %35 = getelementptr inbounds nuw i8, ptr %0, i64 120
  %36 = load ptr, ptr %35, align 8
  br label %40

37:                                               ; preds = %.thread
  %38 = getelementptr inbounds nuw i8, ptr %0, i64 120
  %39 = load ptr, ptr %38, align 8
  br i1 %28, label %.thread62, label %40

40:                                               ; preds = %.thread59, %37
  %41 = phi ptr [ %36, %.thread59 ], [ %39, %37 ]
  %42 = tail call zeroext i1 @tuplestore_gettupleslot(ptr noundef %.04255, i1 noundef zeroext %9, i1 noundef zeroext false, ptr noundef %41) #2
  br i1 %42, label %76, label %43

43:                                               ; preds = %40
  br i1 %9, label %.thread62, label %70

.thread62:                                        ; preds = %37, %43
  %44 = phi ptr [ %41, %43 ], [ %39, %37 ]
  %45 = getelementptr inbounds nuw i8, ptr %0, i64 228
  %46 = load i8, ptr %45, align 4, !range !5, !noundef !6
  %47 = trunc nuw i8 %46 to i1
  br i1 %47, label %70, label %48

48:                                               ; preds = %.thread62
  %49 = getelementptr inbounds nuw i8, ptr %0, i64 72
  %50 = load ptr, ptr %49, align 8
  %51 = getelementptr inbounds nuw i8, ptr %50, i64 104
  %52 = load ptr, ptr %51, align 8
  %.not.i = icmp eq ptr %52, null
  br i1 %.not.i, label %ExecProcNode.exit, label %53

53:                                               ; preds = %48
  tail call void @ExecReScan(ptr noundef nonnull %50) #2
  br label %ExecProcNode.exit

ExecProcNode.exit:                                ; preds = %48, %53
  %54 = getelementptr inbounds nuw i8, ptr %50, i64 24
  %55 = load ptr, ptr %54, align 8
  %56 = tail call ptr %55(ptr noundef nonnull %50) #2
  %57 = icmp eq ptr %56, null
  br i1 %57, label %62, label %58

58:                                               ; preds = %ExecProcNode.exit
  %59 = getelementptr inbounds nuw i8, ptr %56, i64 4
  %60 = load i16, ptr %59, align 4
  %61 = and i16 %60, 2
  %.not51 = icmp eq i16 %61, 0
  br i1 %.not51, label %63, label %62

62:                                               ; preds = %58, %ExecProcNode.exit
  store i8 1, ptr %45, align 4
  br label %76

63:                                               ; preds = %58
  br i1 %27, label %65, label %64

64:                                               ; preds = %63
  tail call void @tuplestore_puttupleslot(ptr noundef nonnull %.04255, ptr noundef nonnull %56) #2
  br label %65

65:                                               ; preds = %64, %63
  %66 = getelementptr inbounds nuw i8, ptr %44, i64 8
  %67 = load ptr, ptr %66, align 8
  %68 = getelementptr inbounds nuw i8, ptr %67, i64 64
  %69 = load ptr, ptr %68, align 8
  tail call void %69(ptr noundef %44, ptr noundef nonnull %56) #2
  br label %76

70:                                               ; preds = %.thread62, %43
  %71 = phi ptr [ %44, %.thread62 ], [ %41, %43 ]
  %72 = getelementptr inbounds nuw i8, ptr %71, i64 8
  %73 = load ptr, ptr %72, align 8
  %74 = getelementptr inbounds nuw i8, ptr %73, i64 24
  %75 = load ptr, ptr %74, align 8
  tail call void %75(ptr noundef %71) #2
  br label %76

76:                                               ; preds = %62, %65, %40, %33, %70
  %.0 = phi ptr [ %71, %70 ], [ null, %33 ], [ %41, %40 ], [ null, %62 ], [ %44, %65 ]
  ret ptr %.0
}